target datalayout = "e-m:e-p270:32:32-p271:32:32-p272:64:64-i64:64-i128:128-f80:128-n8:16:32:64-S128"
target triple = "x86_64-unknown-linux-gnu"

%"class.Assimp::FBX::Token" = type <{ ptr, ptr, i32, [4 x i8], %union.anon, i32, [4 x i8] }>
%union.anon = type { i64 }

@.str.9 = private unnamed_addr constant [24 x i8] c"expected TOK_DATA token\00", align 1
@.str.15 = private unnamed_addr constant [67 x i8] c"failed to parse F(loat) or D(ouble), unexpected data type (binary)\00", align 1

; Function Attrs: mustprogress nounwind uwtable
define linkonce_odr noundef ptr @_ZNSt11__copy_moveILb0ELb1ESt26random_access_iterator_tagE8__copy_mIcEEPT_PKS3_S6_S4_(ptr noundef %__first, ptr noundef %__last, ptr noundef %__result) #0 comdat align 2 {
entry:
  %__first.addr = alloca ptr, align 8
  %__last.addr = alloca ptr, align 8
  %__result.addr = alloca ptr, align 8
  %_Num = alloca i64, align 8
  store ptr %__first, ptr %__first.addr, align 8
  store ptr %__last, ptr %__last.addr, align 8
  store ptr %__result, ptr %__result.addr, align 8
  %0 = load ptr, ptr %__last.addr, align 8
  %1 = load ptr, ptr %__first.addr, align 8
  %sub.ptr.lhs.cast = ptrtoint ptr %0 to i64
  %sub.ptr.rhs.cast = ptrtoint ptr %1 to i64
  %sub.ptr.sub = sub i64 %sub.ptr.lhs.cast, %sub.ptr.rhs.cast
  store i64 %sub.ptr.sub, ptr %_Num, align 8
  %2 = load i64, ptr %_Num, align 8
  %tobool = icmp ne i64 %2, 0
  br i1 %tobool, label %if.then, label %if.end

if.then:                                          ; preds = %entry
  %3 = load ptr, ptr %__result.addr, align 8
  %4 = load ptr, ptr %__first.addr, align 8
  %5 = load i64, ptr %_Num, align 8
  %mul = mul i64 1, %5
  call void @llvm.memmove.p0.p0.i64(ptr align 1 %3, ptr align 1 %4, i64 %mul, i1 false)
  br label %if.end

if.end:                                           ; preds = %if.then, %entry
  %6 = load ptr, ptr %__result.addr, align 8
  %7 = load i64, ptr %_Num, align 8
  %add.ptr = getelementptr inbounds i8, ptr %6, i64 %7
  ret ptr %add.ptr
}

; Function Attrs: mustprogress uwtable
define linkonce_odr noundef ptr @_ZSt14__copy_move_a2ILb0EPKcPcET1_T0_S4_S3_(ptr noundef %__first, ptr noundef %__last, ptr noundef %__result) #6 comdat {
entry:
  %__first.addr = alloca ptr, align 8
  %__last.addr = alloca ptr, align 8
  %__result.addr = alloca ptr, align 8
  store ptr %__first, ptr %__first.addr, align 8
  store ptr %__last, ptr %__last.addr, align 8
  store ptr %__result, ptr %__result.addr, align 8
  %0 = load ptr, ptr %__first.addr, align 8
  %1 = load ptr, ptr %__last.addr, align 8
  %2 = load ptr, ptr %__result.addr, align 8
  %call = call noundef ptr @_ZNSt11__copy_moveILb0ELb1ESt26random_access_iterator_tagE8__copy_mIcEEPT_PKS3_S6_S4_(ptr noundef %0, ptr noundef %1, ptr noundef %2)
  ret ptr %call
}

; Function Attrs: mustprogress nounwind uwtable
define linkonce_odr noundef ptr @_ZSt12__niter_wrapIPcET_RKS1_S1_(ptr noundef nonnull align 8 dereferenceable(8) %0, ptr noundef %__res) #0 comdat {
entry:
  %.addr = alloca ptr, align 8
  %__res.addr = alloca ptr, align 8
  store ptr %0, ptr %.addr, align 8
  store ptr %__res, ptr %__res.addr, align 8
  %1 = load ptr, ptr %__res.addr, align 8
  ret ptr %1
}

; Function Attrs: mustprogress uwtable
define linkonce_odr noundef ptr @_ZSt14__copy_move_a1ILb0EPKcPcET1_T0_S4_S3_(ptr noundef %__first, ptr noundef %__last, ptr noundef %__result) #6 comdat {
entry:
  %__first.addr = alloca ptr, align 8
  %__last.addr = alloca ptr, align 8
  %__result.addr = alloca ptr, align 8
  store ptr %__first, ptr %__first.addr, align 8
  store ptr %__last, ptr %__last.addr, align 8
  store ptr %__result, ptr %__result.addr, align 8
  %0 = load ptr, ptr %__first.addr, align 8
  %1 = load ptr, ptr %__last.addr, align 8
  %2 = load ptr, ptr %__result.addr, align 8
  %call = call noundef ptr @_ZSt14__copy_move_a2ILb0EPKcPcET1_T0_S4_S3_(ptr noundef %0, ptr noundef %1, ptr noundef %2)
  ret ptr %call
}

; Function Attrs: mustprogress nounwind uwtable
define linkonce_odr noundef ptr @_ZSt12__niter_baseIPcET_S1_(ptr noundef %__it) #0 comdat {
entry:
  %__it.addr = alloca ptr, align 8
  store ptr %__it, ptr %__it.addr, align 8
  %0 = load ptr, ptr %__it.addr, align 8
  ret ptr %0
}

; Function Attrs: mustprogress nounwind uwtable
define linkonce_odr noundef ptr @_ZSt12__niter_baseIPKcET_S2_(ptr noundef %__it) #0 comdat {
entry:
  %__it.addr = alloca ptr, align 8
  store ptr %__it, ptr %__it.addr, align 8
  %0 = load ptr, ptr %__it.addr, align 8
  ret ptr %0
}

; Function Attrs: mustprogress uwtable
define linkonce_odr noundef ptr @_ZSt13__copy_move_aILb0EPKcPcET1_T0_S4_S3_(ptr noundef %__first, ptr noundef %__last, ptr noundef %__result) #6 comdat {
entry:
  %__first.addr = alloca ptr, align 8
  %__last.addr = alloca ptr, align 8
  %__result.addr = alloca ptr, align 8
  store ptr %__first, ptr %__first.addr, align 8
  store ptr %__last, ptr %__last.addr, align 8
  store ptr %__result, ptr %__result.addr, align 8
  %0 = load ptr, ptr %__first.addr, align 8
  %call = call noundef ptr @_ZSt12__niter_baseIPKcET_S2_(ptr noundef %0) #5
  %1 = load ptr, ptr %__last.addr, align 8
  %call1 = call noundef ptr @_ZSt12__niter_baseIPKcET_S2_(ptr noundef %1) #5
  %2 = load ptr, ptr %__result.addr, align 8
  %call2 = call noundef ptr @_ZSt12__niter_baseIPcET_S1_(ptr noundef %2) #5
  %call3 = call noundef ptr @_ZSt14__copy_move_a1ILb0EPKcPcET1_T0_S4_S3_(ptr noundef %call, ptr noundef %call1, ptr noundef %call2)
  %call4 = call noundef ptr @_ZSt12__niter_wrapIPcET_RKS1_S1_(ptr noundef nonnull align 8 dereferenceable(8) %__result.addr, ptr noundef %call3)
  ret ptr %call4
}

; Function Attrs: mustprogress nounwind uwtable
define linkonce_odr noundef ptr @_ZSt12__miter_baseIPKcET_S2_(ptr noundef %__it) #0 comdat {
entry:
  %__it.addr = alloca ptr, align 8
  store ptr %__it, ptr %__it.addr, align 8
  %0 = load ptr, ptr %__it.addr, align 8
  ret ptr %0
}

; Function Attrs: mustprogress uwtable
define linkonce_odr hidden noundef float @_ZN6Assimp9fast_atofI17DeadlyImportErrorEEfPKc(ptr noundef %c) #6 comdat {
entry:
  %c.addr = alloca ptr, align 8
  %ret = alloca float, align 4
  store ptr %c, ptr %c.addr, align 8
  store float 0.000000e+00, ptr %ret, align 4
  %0 = load ptr, ptr %c.addr, align 8
  %call = call noundef ptr @_ZN6Assimp17fast_atoreal_moveIf17DeadlyImportErrorEEPKcS3_RT_b(ptr noundef %0, ptr noundef nonnull align 4 dereferenceable(4) %ret, i1 noundef zeroext true)
  %1 = load float, ptr %ret, align 4
  ret float %1
}

; Function Attrs: mustprogress nounwind uwtable
define linkonce_odr noundef nonnull align 8 dereferenceable(8) ptr @_ZSt3minImERKT_S2_S2_(ptr noundef nonnull align 8 dereferenceable(8) %__a, ptr noundef nonnull align 8 dereferenceable(8) %__b) #0 comdat {
entry:
  %retval = alloca ptr, align 8
  %__a.addr = alloca ptr, align 8
  %__b.addr = alloca ptr, align 8
  store ptr %__a, ptr %__a.addr, align 8
  store ptr %__b, ptr %__b.addr, align 8
  %0 = load ptr, ptr %__b.addr, align 8
  %1 = load i64, ptr %0, align 8
  %2 = load ptr, ptr %__a.addr, align 8
  %3 = load i64, ptr %2, align 8
  %cmp = icmp ult i64 %1, %3
  br i1 %cmp, label %if.then, label %if.end

if.then:                                          ; preds = %entry
  %4 = load ptr, ptr %__b.addr, align 8
  store ptr %4, ptr %retval, align 8
  br label %return

if.end:                                           ; preds = %entry
  %5 = load ptr, ptr %__a.addr, align 8
  store ptr %5, ptr %retval, align 8
  br label %return

return:                                           ; preds = %if.end, %if.then
  %6 = load ptr, ptr %retval, align 8
  ret ptr %6
}

; Function Attrs: mustprogress uwtable
define linkonce_odr noundef ptr @_ZSt4copyIPKcPcET0_T_S4_S3_(ptr noundef %__first, ptr noundef %__last, ptr noundef %__result) #6 comdat {
entry:
  %__first.addr = alloca ptr, align 8
  %__last.addr = alloca ptr, align 8
  %__result.addr = alloca ptr, align 8
  store ptr %__first, ptr %__first.addr, align 8
  store ptr %__last, ptr %__last.addr, align 8
  store ptr %__result, ptr %__result.addr, align 8
  %0 = load ptr, ptr %__first.addr, align 8
  %call = call noundef ptr @_ZSt12__miter_baseIPKcET_S2_(ptr noundef %0)
  %1 = load ptr, ptr %__last.addr, align 8
  %call1 = call noundef ptr @_ZSt12__miter_baseIPKcET_S2_(ptr noundef %1)
  %2 = load ptr, ptr %__result.addr, align 8
  %call2 = call noundef ptr @_ZSt13__copy_move_aILb0EPKcPcET1_T0_S4_S3_(ptr noundef %call, ptr noundef %call1, ptr noundef %2)
  ret ptr %call2
}

; Function Attrs: mustprogress nounwind uwtable
define internal noundef double @_ZN12_GLOBAL__N_19SafeParseIdEET_PKcS3_(ptr noundef %data, ptr noundef %end) #0 {
entry:
  %data.addr = alloca ptr, align 8
  %end.addr = alloca ptr, align 8
  %result = alloca double, align 8
  store ptr %data, ptr %data.addr, align 8
  store ptr %end, ptr %end.addr, align 8
  store double 0.000000e+00, ptr %result, align 8
  %0 = load ptr, ptr %data.addr, align 8
  call void @llvm.memcpy.p0.p0.i64(ptr align 8 %result, ptr align 1 %0, i64 8, i1 false)
  %1 = load double, ptr %result, align 8
  ret double %1
}

; Function Attrs: mustprogress nounwind uwtable
define internal noundef float @_ZN12_GLOBAL__N_19SafeParseIfEET_PKcS3_(ptr noundef %data, ptr noundef %end) #0 {
entry:
  %data.addr = alloca ptr, align 8
  %end.addr = alloca ptr, align 8
  %result = alloca float, align 4
  store ptr %data, ptr %data.addr, align 8
  store ptr %end, ptr %end.addr, align 8
  store float 0.000000e+00, ptr %result, align 4
  %0 = load ptr, ptr %data.addr, align 8
  call void @llvm.memcpy.p0.p0.i64(ptr align 4 %result, ptr align 1 %0, i64 4, i1 false)
  %1 = load float, ptr %result, align 4
  ret float %1
}

; Function Attrs: mustprogress nounwind uwtable
define linkonce_odr hidden noundef ptr @_ZNK6Assimp3FBX5Token3endEv(ptr noundef nonnull align 8 dereferenceable(36) %this) #0 comdat align 2 {
entry:
  %this.addr = alloca ptr, align 8
  store ptr %this, ptr %this.addr, align 8
  %this1 = load ptr, ptr %this.addr, align 8
  %send = getelementptr inbounds %"class.Assimp::FBX::Token", ptr %this1, i32 0, i32 1
  %0 = load ptr, ptr %send, align 8
  ret ptr %0
}

; Function Attrs: mustprogress nounwind uwtable
define linkonce_odr hidden noundef ptr @_ZNK6Assimp3FBX5Token5beginEv(ptr noundef nonnull align 8 dereferenceable(36) %this) #0 comdat align 2 {
entry:
  %this.addr = alloca ptr, align 8
  store ptr %this, ptr %this.addr, align 8
  %this1 = load ptr, ptr %this.addr, align 8
  %sbegin = getelementptr inbounds %"class.Assimp::FBX::Token", ptr %this1, i32 0, i32 0
  %0 = load ptr, ptr %sbegin, align 8
  ret ptr %0
}

; Function Attrs: mustprogress nounwind uwtable
define linkonce_odr hidden noundef zeroext i1 @_ZNK6Assimp3FBX5Token8IsBinaryEv(ptr noundef nonnull align 8 dereferenceable(36) %this) #0 comdat align 2 {
entry:
  %this.addr = alloca ptr, align 8
  store ptr %this, ptr %this.addr, align 8
  %this1 = load ptr, ptr %this.addr, align 8
  %column = getelementptr inbounds %"class.Assimp::FBX::Token", ptr %this1, i32 0, i32 5
  %0 = load i32, ptr %column, align 8
  %cmp = icmp eq i32 %0, -1
  ret i1 %cmp
}

; Function Attrs: mustprogress nounwind uwtable
define linkonce_odr hidden noundef i32 @_ZNK6Assimp3FBX5Token4TypeEv(ptr noundef nonnull align 8 dereferenceable(36) %this) #0 comdat align 2 {
entry:
  %this.addr = alloca ptr, align 8
  store ptr %this, ptr %this.addr, align 8
  %this1 = load ptr, ptr %this.addr, align 8
  %type = getelementptr inbounds %"class.Assimp::FBX::Token", ptr %this1, i32 0, i32 2
  %0 = load i32, ptr %type, align 8
  ret i32 %0
}

; Function Attrs: mustprogress uwtable
define hidden noundef float @_ZN6Assimp3FBX17ParseTokenAsFloatERKNS0_5TokenERPKc(ptr noundef nonnull align 8 dereferenceable(36) %t, ptr noundef nonnull align 8 dereferenceable(8) %err_out) #6 {
entry:
  %retval = alloca float, align 4
  %t.addr = alloca ptr, align 8
  %err_out.addr = alloca ptr, align 8
  %data = alloca ptr, align 8
  %length = alloca i64, align 8
  %temp = alloca [32 x i8], align 16
  %ref.tmp = alloca i64, align 8
  store ptr %t, ptr %t.addr, align 8
  store ptr %err_out, ptr %err_out.addr, align 8
  %0 = load ptr, ptr %err_out.addr, align 8
  store ptr null, ptr %0, align 8
  %1 = load ptr, ptr %t.addr, align 8
  %call = call noundef i32 @_ZNK6Assimp3FBX5Token4TypeEv(ptr noundef nonnull align 8 dereferenceable(36) %1)
  %cmp = icmp ne i32 %call, 2
  br i1 %cmp, label %if.then, label %if.end

if.then:                                          ; preds = %entry
  %2 = load ptr, ptr %err_out.addr, align 8
  store ptr @.str.9, ptr %2, align 8
  store float 0.000000e+00, ptr %retval, align 4
  br label %return

if.end:                                           ; preds = %entry
  %3 = load ptr, ptr %t.addr, align 8
  %call1 = call noundef zeroext i1 @_ZNK6Assimp3FBX5Token8IsBinaryEv(ptr noundef nonnull align 8 dereferenceable(36) %3)
  br i1 %call1, label %if.then2, label %if.end20

if.then2:                                         ; preds = %if.end
  %4 = load ptr, ptr %t.addr, align 8
  %call3 = call noundef ptr @_ZNK6Assimp3FBX5Token5beginEv(ptr noundef nonnull align 8 dereferenceable(36) %4)
  store ptr %call3, ptr %data, align 8
  %5 = load ptr, ptr %data, align 8
  %arrayidx = getelementptr inbounds i8, ptr %5, i64 0
  %6 = load i8, ptr %arrayidx, align 1
  %conv = sext i8 %6 to i32
  %cmp4 = icmp ne i32 %conv, 70
  br i1 %cmp4, label %land.lhs.true, label %if.end9

land.lhs.true:                                    ; preds = %if.then2
  %7 = load ptr, ptr %data, align 8
  %arrayidx5 = getelementptr inbounds i8, ptr %7, i64 0
  %8 = load i8, ptr %arrayidx5, align 1
  %conv6 = sext i8 %8 to i32
  %cmp7 = icmp ne i32 %conv6, 68
  br i1 %cmp7, label %if.then8, label %if.end9

if.then8:                                         ; preds = %land.lhs.true
  %9 = load ptr, ptr %err_out.addr, align 8
  store ptr @.str.15, ptr %9, align 8
  store float 0.000000e+00, ptr %retval, align 4
  br label %return

if.end9:                                          ; preds = %land.lhs.true, %if.then2
  %10 = load ptr, ptr %data, align 8
  %arrayidx10 = getelementptr inbounds i8, ptr %10, i64 0
  %11 = load i8, ptr %arrayidx10, align 1
  %conv11 = sext i8 %11 to i32
  %cmp12 = icmp eq i32 %conv11, 70
  br i1 %cmp12, label %if.then13, label %if.else

if.then13:                                        ; preds = %if.end9
  %12 = load ptr, ptr %data, align 8
  %add.ptr = getelementptr inbounds i8, ptr %12, i64 1
  %13 = load ptr, ptr %t.addr, align 8
  %call14 = call noundef ptr @_ZNK6Assimp3FBX5Token3endEv(ptr noundef nonnull align 8 dereferenceable(36) %13)
  %call15 = call noundef float @_ZN12_GLOBAL__N_19SafeParseIfEET_PKcS3_(ptr noundef %add.ptr, ptr noundef %call14)
  store float %call15, ptr %retval, align 4
  br label %return

if.else:                                          ; preds = %if.end9
  %14 = load ptr, ptr %data, align 8
  %add.ptr16 = getelementptr inbounds i8, ptr %14, i64 1
  %15 = load ptr, ptr %t.addr, align 8
  %call17 = call noundef ptr @_ZNK6Assimp3FBX5Token3endEv(ptr noundef nonnull align 8 dereferenceable(36) %15)
  %call18 = call noundef double @_ZN12_GLOBAL__N_19SafeParseIdEET_PKcS3_(ptr noundef %add.ptr16, ptr noundef %call17)
  %conv19 = fptrunc double %call18 to float
  store float %conv19, ptr %retval, align 4
  br label %return

if.end20:                                         ; preds = %if.end
  %16 = load ptr, ptr %t.addr, align 8
  %call21 = call noundef ptr @_ZNK6Assimp3FBX5Token3endEv(ptr noundef nonnull align 8 dereferenceable(36) %16)
  %17 = load ptr, ptr %t.addr, align 8
  %call22 = call noundef ptr @_ZNK6Assimp3FBX5Token5beginEv(ptr noundef nonnull align 8 dereferenceable(36) %17)
  %sub.ptr.lhs.cast = ptrtoint ptr %call21 to i64
  %sub.ptr.rhs.cast = ptrtoint ptr %call22 to i64
  %sub.ptr.sub = sub i64 %sub.ptr.lhs.cast, %sub.ptr.rhs.cast
  store i64 %sub.ptr.sub, ptr %length, align 8
  %18 = load i64, ptr %length, align 8
  %cmp23 = icmp ugt i64 %18, 31
  br i1 %cmp23, label %if.then24, label %if.end25

if.then24:                                        ; preds = %if.end20
  store float 0.000000e+00, ptr %retval, align 4
  br label %return

if.end25:                                         ; preds = %if.end20
  %19 = load ptr, ptr %t.addr, align 8
  %call26 = call noundef ptr @_ZNK6Assimp3FBX5Token5beginEv(ptr noundef nonnull align 8 dereferenceable(36) %19)
  %20 = load ptr, ptr %t.addr, align 8
  %call27 = call noundef ptr @_ZNK6Assimp3FBX5Token3endEv(ptr noundef nonnull align 8 dereferenceable(36) %20)
  %arraydecay = getelementptr inbounds [32 x i8], ptr %temp, i64 0, i64 0
  %call28 = call noundef ptr @_ZSt4copyIPKcPcET0_T_S4_S3_(ptr noundef %call26, ptr noundef %call27, ptr noundef %arraydecay)
  store i64 31, ptr %ref.tmp, align 8
  %call29 = call noundef nonnull align 8 dereferenceable(8) ptr @_ZSt3minImERKT_S2_S2_(ptr noundef nonnull align 8 dereferenceable(8) %ref.tmp, ptr noundef nonnull align 8 dereferenceable(8) %length)
  %21 = load i64, ptr %call29, align 8
  %arrayidx30 = getelementptr inbounds [32 x i8], ptr %temp, i64 0, i64 %21
  store i8 0, ptr %arrayidx30, align 1
  %arraydecay31 = getelementptr inbounds [32 x i8], ptr %temp, i64 0, i64 0
  %call32 = call noundef float @_ZN6Assimp9fast_atofI17DeadlyImportErrorEEfPKc(ptr noundef %arraydecay31)
  store float %call32, ptr %retval, align 4
  br label %return

return:                                           ; preds = %if.end25, %if.then24, %if.else, %if.then13, %if.then8, %if.then
  %22 = load float, ptr %retval, align 4
  ret float %22
}