; Function Attrs: mustprogress uwtable
define hidden noundef float @_ZN6Assimp3FBX17ParseTokenAsFloatERKNS0_5TokenERPKc(ptr nocapture noundef nonnull readonly align 8 dereferenceable(36) %t, ptr nocapture noundef nonnull writeonly align 8 dereferenceable(8) %err_out) local_unnamed_addr #3 {
entry:
  %ret.i = alloca float, align 4
  %temp = alloca [32 x i8], align 16
  store ptr null, ptr %err_out, align 8
  %type.i = getelementptr inbounds i8, ptr %t, i64 16
  %0 = load i32, ptr %type.i, align 8
  %cmp.not = icmp eq i32 %0, 2
  br i1 %cmp.not, label %if.end, label %if.then

if.then:                                          ; preds = %entry
  store ptr @.str.9, ptr %err_out, align 8
  br label %return

if.end:                                           ; preds = %entry
  %column.i = getelementptr inbounds i8, ptr %t, i64 32
  %1 = load i32, ptr %column.i, align 8
  %cmp.i = icmp eq i32 %1, -1
  br i1 %cmp.i, label %if.then2, label %if.end20

if.then2:                                         ; preds = %if.end
  %2 = load ptr, ptr %t, align 8
  %3 = load i8, ptr %2, align 1
  switch i8 %3, label %if.then8 [
    i8 70, label %if.then13
    i8 68, label %if.else
  ]

if.then8:                                         ; preds = %if.then2
  store ptr @.str.15, ptr %err_out, align 8
  br label %return

if.then13:                                        ; preds = %if.then2
  %add.ptr = getelementptr inbounds i8, ptr %2, i64 1
  %add.ptr.val = load float, ptr %add.ptr, align 1
  br label %return

if.else:                                          ; preds = %if.then2
  %add.ptr16 = getelementptr inbounds i8, ptr %2, i64 1
  %add.ptr16.val = load double, ptr %add.ptr16, align 1
  %conv19 = fptrunc double %add.ptr16.val to float
  br label %return

if.end20:                                         ; preds = %if.end
  %send.i16 = getelementptr inbounds i8, ptr %t, i64 8
  %4 = load ptr, ptr %send.i16, align 8
  %5 = load ptr, ptr %t, align 8
  %sub.ptr.lhs.cast = ptrtoint ptr %4 to i64
  %sub.ptr.rhs.cast = ptrtoint ptr %5 to i64
  %sub.ptr.sub = sub i64 %sub.ptr.lhs.cast, %sub.ptr.rhs.cast
  %cmp23 = icmp ugt i64 %sub.ptr.sub, 31
  br i1 %cmp23, label %return, label %if.end25

if.end25:                                         ; preds = %if.end20
  %tobool.not.i.i.i.i.i = icmp eq ptr %4, %5
  br i1 %tobool.not.i.i.i.i.i, label %_ZSt4copyIPKcPcET0_T_S4_S3_.exit, label %if.then.i.i.i.i.i

if.then.i.i.i.i.i:                                ; preds = %if.end25
  call void @llvm.memmove.p0.p0.i64(ptr nonnull align 16 %temp, ptr align 1 %5, i64 %sub.ptr.sub, i1 false)
  br label %_ZSt4copyIPKcPcET0_T_S4_S3_.exit

_ZSt4copyIPKcPcET0_T_S4_S3_.exit:                 ; preds = %if.end25, %if.then.i.i.i.i.i
  %arrayidx30 = getelementptr inbounds [32 x i8], ptr %temp, i64 0, i64 %sub.ptr.sub
  store i8 0, ptr %arrayidx30, align 1
  call void @llvm.lifetime.start.p0(i64 4, ptr nonnull %ret.i)
  store float 0.000000e+00, ptr %ret.i, align 4
  %call.i = call noundef ptr @_ZN6Assimp17fast_atoreal_moveIf17DeadlyImportErrorEEPKcS3_RT_b(ptr noundef nonnull %temp, ptr noundef nonnull align 4 dereferenceable(4) %ret.i, i1 noundef zeroext true)
  %6 = load float, ptr %ret.i, align 4
  call void @llvm.lifetime.end.p0(i64 4, ptr nonnull %ret.i)
  br label %return

return:                                           ; preds = %if.end20, %_ZSt4copyIPKcPcET0_T_S4_S3_.exit, %if.else, %if.then13, %if.then8, %if.then
  %retval.0 = phi float [ 0.000000e+00, %if.then ], [ 0.000000e+00, %if.then8 ], [ %add.ptr.val, %if.then13 ], [ %conv19, %if.else ], [ %6, %_ZSt4copyIPKcPcET0_T_S4_S3_.exit ], [ 0.000000e+00, %if.end20 ]
  ret float %retval.0
}